; Function Attrs: nounwind uwtable
define hidden void @_glfwHideWindowWayland(ptr noundef captures(none) %0) local_unnamed_addr #0 {
  %2 = getelementptr inbounds nuw i8, ptr %0, i64 872
  %3 = load i32, ptr %2, align 8, !tbaa !137
  %.not = icmp eq i32 %3, 0
  br i1 %.not, label %44, label %4

4:                                                ; preds = %1
  store i32 0, ptr %2, align 8, !tbaa !137
  tail call fastcc void @destroyFallbackDecorations(ptr noundef nonnull %0)
  %5 = getelementptr inbounds nuw i8, ptr %0, i64 984
  %6 = load ptr, ptr %5, align 8, !tbaa !160
  %.not.i = icmp eq ptr %6, null
  br i1 %.not.i, label %9, label %7

7:                                                ; preds = %4
  %8 = load ptr, ptr getelementptr inbounds nuw (i8, ptr @_glfw, i64 137680), align 8, !tbaa !245
  tail call void %8(ptr noundef nonnull %6) #20
  br label %9

9:                                                ; preds = %7, %4
  %10 = getelementptr inbounds nuw i8, ptr %0, i64 952
  %11 = getelementptr inbounds nuw i8, ptr %0, i64 968
  %12 = load ptr, ptr %11, align 8, !tbaa !237
  %.not17.i = icmp eq ptr %12, null
  br i1 %.not17.i, label %18, label %13

13:                                               ; preds = %9
  %14 = load ptr, ptr getelementptr inbounds nuw (i8, ptr @_glfw, i64 137528), align 8, !tbaa !136
  %15 = load ptr, ptr getelementptr inbounds nuw (i8, ptr @_glfw, i64 137520), align 8, !tbaa !93
  %16 = tail call i32 %15(ptr noundef nonnull %12) #20
  %17 = tail call ptr (ptr, i32, ptr, i32, i32, ...) %14(ptr noundef nonnull %12, i32 noundef 0, ptr noundef null, i32 noundef %16, i32 noundef 1) #20
  br label %18

18:                                               ; preds = %13, %9
  %19 = getelementptr inbounds nuw i8, ptr %0, i64 960
  %20 = load ptr, ptr %19, align 8, !tbaa !235
  %.not18.i = icmp eq ptr %20, null
  br i1 %.not18.i, label %26, label %21

21:                                               ; preds = %18
  %22 = load ptr, ptr getelementptr inbounds nuw (i8, ptr @_glfw, i64 137528), align 8, !tbaa !136
  %23 = load ptr, ptr getelementptr inbounds nuw (i8, ptr @_glfw, i64 137520), align 8, !tbaa !93
  %24 = tail call i32 %23(ptr noundef nonnull %20) #20
  %25 = tail call ptr (ptr, i32, ptr, i32, i32, ...) %22(ptr noundef nonnull %20, i32 noundef 0, ptr noundef null, i32 noundef %24, i32 noundef 1) #20
  br label %26

26:                                               ; preds = %21, %18
  %27 = load ptr, ptr %10, align 8, !tbaa !234
  %.not19.i = icmp eq ptr %27, null
  br i1 %.not19.i, label %destroyShellObjects.exit, label %28

28:                                               ; preds = %26
  %29 = load ptr, ptr getelementptr inbounds nuw (i8, ptr @_glfw, i64 137528), align 8, !tbaa !136
  %30 = load ptr, ptr getelementptr inbounds nuw (i8, ptr @_glfw, i64 137520), align 8, !tbaa !93
  %31 = tail call i32 %30(ptr noundef nonnull %27) #20
  %32 = tail call ptr (ptr, i32, ptr, i32, i32, ...) %29(ptr noundef nonnull %27, i32 noundef 0, ptr noundef null, i32 noundef %31, i32 noundef 1) #20
  br label %destroyShellObjects.exit

destroyShellObjects.exit:                         ; preds = %26, %28
  store ptr null, ptr %5, align 8, !tbaa !160
  tail call void @llvm.memset.p0.i64(ptr noundef nonnull align 8 dereferenceable(28) %10, i8 0, i64 28, i1 false)
  %33 = getelementptr inbounds nuw i8, ptr %0, i64 904
  %34 = load ptr, ptr %33, align 8, !tbaa !135
  %35 = load ptr, ptr getelementptr inbounds nuw (i8, ptr @_glfw, i64 137528), align 8, !tbaa !136
  %36 = load ptr, ptr getelementptr inbounds nuw (i8, ptr @_glfw, i64 137520), align 8, !tbaa !93
  %37 = tail call i32 %36(ptr noundef %34) #20
  %38 = tail call ptr (ptr, i32, ptr, i32, i32, ...) %35(ptr noundef %34, i32 noundef 1, ptr noundef null, i32 noundef %37, i32 noundef 0, ptr noundef null, i32 noundef 0, i32 noundef 0) #20
  %39 = load ptr, ptr %33, align 8, !tbaa !135
  %40 = load ptr, ptr getelementptr inbounds nuw (i8, ptr @_glfw, i64 137528), align 8, !tbaa !136
  %41 = load ptr, ptr getelementptr inbounds nuw (i8, ptr @_glfw, i64 137520), align 8, !tbaa !93
  %42 = tail call i32 %41(ptr noundef %39) #20
  %43 = tail call ptr (ptr, i32, ptr, i32, i32, ...) %40(ptr noundef %39, i32 noundef 6, ptr noundef null, i32 noundef %42, i32 noundef 0) #20
  br label %44

44:                                               ; preds = %destroyShellObjects.exit, %1
  ret void
}